; Function Attrs: mustprogress nounwind uwtable
define hidden noundef zeroext i1 @_ZN14XPageAllocator19alloc_page_or_stallEP15XPageAllocation(ptr noundef nonnull align 8 dereferenceable(609) %0, ptr noundef %1) local_unnamed_addr #1 align 2 {
  %3 = tail call i32 @pthread_mutex_lock(ptr noundef nonnull %0) #14
  %4 = tail call noundef zeroext i1 @_ZN14XPageAllocator17alloc_page_commonEP15XPageAllocation(ptr noundef nonnull align 8 dereferenceable(609) %0, ptr noundef %1)
  br i1 %4, label %_ZN7XLockerI5XLockED2Ev.exit.thread, label %5

5:                                                ; preds = %2
  %6 = getelementptr inbounds i8, ptr %1, i64 16
  %.sroa.0.0.copyload.i = load i8, ptr %6, align 8
  %7 = and i8 %.sroa.0.0.copyload.i, 1
  %.not = icmp eq i8 %7, 0
  br i1 %.not, label %9, label %_ZN7XLockerI5XLockED2Ev.exit.thread

_ZN7XLockerI5XLockED2Ev.exit.thread:              ; preds = %2, %5
  %8 = tail call i32 @pthread_mutex_unlock(ptr noundef nonnull %0) #14
  br label %22

9:                                                ; preds = %5
  %10 = getelementptr inbounds i8, ptr %0, i64 472
  %11 = load ptr, ptr %10, align 8
  %12 = getelementptr inbounds i8, ptr %1, i64 64
  %13 = getelementptr inbounds i8, ptr %1, i64 72
  store ptr %11, ptr %13, align 8
  %14 = load ptr, ptr %11, align 8
  store ptr %14, ptr %12, align 8
  store ptr %12, ptr %11, align 8
  %15 = load ptr, ptr %12, align 8
  %16 = getelementptr inbounds i8, ptr %15, i64 8
  store ptr %12, ptr %16, align 8
  %17 = getelementptr inbounds i8, ptr %0, i64 480
  %18 = load i64, ptr %17, align 8
  %19 = add i64 %18, 1
  store i64 %19, ptr %17, align 8
  %20 = tail call i32 @pthread_mutex_unlock(ptr noundef nonnull %0) #14
  %21 = tail call noundef zeroext i1 @_ZN14XPageAllocator16alloc_page_stallEP15XPageAllocation(ptr noundef nonnull align 8 dereferenceable(609) %0, ptr noundef nonnull %1)
  br label %22

22:                                               ; preds = %_ZN7XLockerI5XLockED2Ev.exit.thread, %9
  %.1 = phi i1 [ %21, %9 ], [ %4, %_ZN7XLockerI5XLockED2Ev.exit.thread ]
  ret i1 %.1
}